(dp0
S'weighting'
p1
S'model'
p2
sS'detectors'
p3
(dp4
S'BAT'
p5
ccopy_reg
_reconstructor
p6
(cGTGRB.autofit
detectorConfiguration
p7
c__builtin__
object
p8
Ntp9
Rp10
(dp11
S'channelsToIgnore'
p12
S'**-15.0 150.0-**'
p13
sS'name'
p14
g5
sS'statistic'
p15
S'chi'
p16
sbsS'NAI_02'
p17
g6
(g7
g8
Ntp18
Rp19
(dp20
g12
S'1-4 22-25 126-128'
p21
sg14
g17
sg15
S'pgstat'
p22
sbsS'NAI_04'
p23
g6
(g7
g8
Ntp24
Rp25
(dp26
g12
S'1-4 23-25 126-128'
p27
sg14
g23
sg15
S'pgstat'
p28
sbsS'NAI_09'
p29
g6
(g7
g8
Ntp30
Rp31
(dp32
g12
g27
sg14
g29
sg15
S'pgstat'
p33
sbsS'NAI_08'
p34
g6
(g7
g8
Ntp35
Rp36
(dp37
g12
g21
sg14
g34
sg15
S'pgstat'
p38
sbsS'NAI_07'
p39
g6
(g7
g8
Ntp40
Rp41
(dp42
g12
g27
sg14
g39
sg15
S'pgstat'
p43
sbsS'NAI_01'
p44
g6
(g7
g8
Ntp45
Rp46
(dp47
g12
S'1-5 23-26 126-128'
p48
sg14
g44
sg15
S'pgstat'
p49
sbsS'BGO_01'
p50
g6
(g7
g8
Ntp51
Rp52
(dp53
g12
S'1-2 126-128'
p54
sg14
g50
sg15
S'pgstat'
p55
sbsS'BGO_00'
p56
g6
(g7
g8
Ntp57
Rp58
(dp59
g12
S'1 126-128'
p60
sg14
g56
sg15
S'pgstat'
p61
sbsS'LAT'
p62
g6
(g7
g8
Ntp63
Rp64
(dp65
g12
S'**-1e5'
p66
sg14
g62
sg15
S'pgstat'
p67
sbsS'NAI_00'
p68
g6
(g7
g8
Ntp69
Rp70
(dp71
g12
g21
sg14
g68
sg15
S'pgstat'
p72
sbsS'NAI_10'
p73
g6
(g7
g8
Ntp74
Rp75
(dp76
g12
g48
sg14
g73
sg15
S'pgstat'
p77
sbsS'NAI_11'
p78
g6
(g7
g8
Ntp79
Rp80
(dp81
g12
g48
sg14
g78
sg15
S'pgstat'
p82
sbsS'NAI_05'
p83
g6
(g7
g8
Ntp84
Rp85
(dp86
g12
g48
sg14
g83
sg15
S'pgstat'
p87
sbsS'NAI_03'
p88
g6
(g7
g8
Ntp89
Rp90
(dp91
g12
S'1-5 23-25 126-128'
p92
sg14
g88
sg15
S'pgstat'
p93
sbsS'LLE'
p94
g6
(g7
g8
Ntp95
Rp96
(dp97
g12
S'**-3e4 1e5-**'
p98
sg14
g94
sg15
S'pgstat'
p99
sbsS'NAI_06'
p100
g6
(g7
g8
Ntp101
Rp102
(dp103
g12
S'1-3 22-24 126-128'
p104
sg14
g100
sg15
S'pgstat'
p105
sbss.